target datalayout = "e-m:e-p270:32:32-p271:32:32-p272:64:64-i64:64-i128:128-f80:128-n8:16:32:64-S128"
target triple = "x86_64-pc-linux-gnu"

%struct.JNINativeInterface_ = type { ptr, ptr, ptr, ptr, ptr, ptr, ptr, ptr, ptr, ptr, ptr, ptr, ptr, ptr, ptr, ptr, ptr, ptr, ptr, ptr, ptr, ptr, ptr, ptr, ptr, ptr, ptr, ptr, ptr, ptr, ptr, ptr, ptr, ptr, ptr, ptr, ptr, ptr, ptr, ptr, ptr, ptr, ptr, ptr, ptr, ptr, ptr, ptr, ptr, ptr, ptr, ptr, ptr, ptr, ptr, ptr, ptr, ptr, ptr, ptr, ptr, ptr, ptr, ptr, ptr, ptr, ptr, ptr, ptr, ptr, ptr, ptr, ptr, ptr, ptr, ptr, ptr, ptr, ptr, ptr, ptr, ptr, ptr, ptr, ptr, ptr, ptr, ptr, ptr, ptr, ptr, ptr, ptr, ptr, ptr, ptr, ptr, ptr, ptr, ptr, ptr, ptr, ptr, ptr, ptr, ptr, ptr, ptr, ptr, ptr, ptr, ptr, ptr, ptr, ptr, ptr, ptr, ptr, ptr, ptr, ptr, ptr, ptr, ptr, ptr, ptr, ptr, ptr, ptr, ptr, ptr, ptr, ptr, ptr, ptr, ptr, ptr, ptr, ptr, ptr, ptr, ptr, ptr, ptr, ptr, ptr, ptr, ptr, ptr, ptr, ptr, ptr, ptr, ptr, ptr, ptr, ptr, ptr, ptr, ptr, ptr, ptr, ptr, ptr, ptr, ptr, ptr, ptr, ptr, ptr, ptr, ptr, ptr, ptr, ptr, ptr, ptr, ptr, ptr, ptr, ptr, ptr, ptr, ptr, ptr, ptr, ptr, ptr, ptr, ptr, ptr, ptr, ptr, ptr, ptr, ptr, ptr, ptr, ptr, ptr, ptr, ptr, ptr, ptr, ptr, ptr, ptr, ptr, ptr, ptr, ptr, ptr, ptr, ptr, ptr, ptr, ptr, ptr, ptr, ptr, ptr, ptr, ptr, ptr, ptr, ptr, ptr, ptr, ptr, ptr, ptr, ptr, ptr, ptr, ptr }
%struct.CK_FUNCTION_LIST = type { %struct.CK_VERSION, ptr, ptr, ptr, ptr, ptr, ptr, ptr, ptr, ptr, ptr, ptr, ptr, ptr, ptr, ptr, ptr, ptr, ptr, ptr, ptr, ptr, ptr, ptr, ptr, ptr, ptr, ptr, ptr, ptr, ptr, ptr, ptr, ptr, ptr, ptr, ptr, ptr, ptr, ptr, ptr, ptr, ptr, ptr, ptr, ptr, ptr, ptr, ptr, ptr, ptr, ptr, ptr, ptr, ptr, ptr, ptr, ptr, ptr, ptr, ptr, ptr, ptr, ptr, ptr, ptr, ptr, ptr, ptr }
%struct.CK_VERSION = type { i8, i8 }

; Function Attrs: nounwind uwtable
define i64 @Java_sun_security_pkcs11_wrapper_PKCS11_C_1CopyObject(ptr noundef %0, ptr noundef %1, i64 noundef %2, i64 noundef %3, ptr noundef %4) #0 {
  %6 = alloca i64, align 8
  %7 = alloca ptr, align 8
  %8 = alloca ptr, align 8
  %9 = alloca i64, align 8
  %10 = alloca i64, align 8
  %11 = alloca ptr, align 8
  %12 = alloca i64, align 8
  %13 = alloca i64, align 8
  %14 = alloca i64, align 8
  %15 = alloca ptr, align 8
  %16 = alloca i64, align 8
  %17 = alloca i64, align 8
  %18 = alloca i64, align 8
  %19 = alloca ptr, align 8
  store ptr %0, ptr %7, align 8
  store ptr %1, ptr %8, align 8
  store i64 %2, ptr %9, align 8
  store i64 %3, ptr %10, align 8
  store ptr %4, ptr %11, align 8
  store ptr null, ptr %15, align 8
  store i64 0, ptr %17, align 8
  %20 = load ptr, ptr %7, align 8
  %21 = load ptr, ptr %8, align 8
  %22 = call ptr @getFunctionList(ptr noundef %20, ptr noundef %21)
  store ptr %22, ptr %19, align 8
  %23 = load ptr, ptr %19, align 8
  %24 = icmp eq ptr %23, null
  br i1 %24, label %25, label %26

25:                                               ; preds = %5
  store i64 0, ptr %6, align 8
  br label %59

26:                                               ; preds = %5
  %27 = load i64, ptr %9, align 8
  store i64 %27, ptr %12, align 8
  %28 = load i64, ptr %10, align 8
  store i64 %28, ptr %13, align 8
  %29 = load ptr, ptr %7, align 8
  %30 = load ptr, ptr %11, align 8
  call void @jAttributeArrayToCKAttributeArray(ptr noundef %29, ptr noundef %30, ptr noundef %15, ptr noundef %16)
  %31 = load ptr, ptr %7, align 8
  %32 = load ptr, ptr %31, align 8
  %33 = getelementptr inbounds %struct.JNINativeInterface_, ptr %32, i32 0, i32 228
  %34 = load ptr, ptr %33, align 8
  %35 = load ptr, ptr %7, align 8
  %36 = call zeroext i8 %34(ptr noundef %35)
  %37 = icmp ne i8 %36, 0
  br i1 %37, label %38, label %39

38:                                               ; preds = %26
  store i64 0, ptr %6, align 8
  br label %59

39:                                               ; preds = %26
  %40 = load ptr, ptr %19, align 8
  %41 = getelementptr inbounds %struct.CK_FUNCTION_LIST, ptr %40, i32 0, i32 22
  %42 = load ptr, ptr %41, align 8
  %43 = load i64, ptr %12, align 8
  %44 = load i64, ptr %13, align 8
  %45 = load ptr, ptr %15, align 8
  %46 = load i64, ptr %16, align 8
  %47 = call i64 %42(i64 noundef %43, i64 noundef %44, ptr noundef %45, i64 noundef %46, ptr noundef %14)
  store i64 %47, ptr %18, align 8
  %48 = load i64, ptr %14, align 8
  store i64 %48, ptr %17, align 8
  %49 = load ptr, ptr %15, align 8
  %50 = load i64, ptr %16, align 8
  %51 = trunc i64 %50 to i32
  call void @freeCKAttributeArray(ptr noundef %49, i32 noundef %51)
  %52 = load ptr, ptr %7, align 8
  %53 = load i64, ptr %18, align 8
  %54 = call i64 @ckAssertReturnValueOK(ptr noundef %52, i64 noundef %53)
  %55 = icmp ne i64 %54, 0
  br i1 %55, label %56, label %57

56:                                               ; preds = %39
  store i64 0, ptr %6, align 8
  br label %59

57:                                               ; preds = %39
  %58 = load i64, ptr %17, align 8
  store i64 %58, ptr %6, align 8
  br label %59

59:                                               ; preds = %57, %56, %38, %25
  %60 = load i64, ptr %6, align 8
  ret i64 %60
}