; Function Attrs: nounwind uwtable
define i64 @Java_sun_security_pkcs11_wrapper_PKCS11_C_1CopyObject(ptr noundef %0, ptr noundef %1, i64 noundef %2, i64 noundef %3, ptr noundef %4) local_unnamed_addr #0 {
  %6 = alloca i64, align 8
  %7 = alloca ptr, align 8
  %8 = alloca i64, align 8
  store ptr null, ptr %7, align 8
  %9 = tail call ptr @getFunctionList(ptr noundef %0, ptr noundef %1) #5
  %10 = icmp eq ptr %9, null
  br i1 %10, label %27, label %11

11:                                               ; preds = %5
  call void @jAttributeArrayToCKAttributeArray(ptr noundef %0, ptr noundef %4, ptr noundef nonnull %7, ptr noundef nonnull %8) #5
  %12 = load ptr, ptr %0, align 8
  %13 = getelementptr inbounds i8, ptr %12, i64 1824
  %14 = load ptr, ptr %13, align 8
  %15 = call zeroext i8 %14(ptr noundef nonnull %0) #5
  %.not = icmp eq i8 %15, 0
  br i1 %.not, label %16, label %27

16:                                               ; preds = %11
  %17 = getelementptr inbounds i8, ptr %9, i64 176
  %18 = load ptr, ptr %17, align 8
  %19 = load ptr, ptr %7, align 8
  %20 = load i64, ptr %8, align 8
  %21 = call i64 %18(i64 noundef %2, i64 noundef %3, ptr noundef %19, i64 noundef %20, ptr noundef nonnull %6) #5
  %22 = load i64, ptr %6, align 8
  %23 = load ptr, ptr %7, align 8
  %24 = load i64, ptr %8, align 8
  %25 = trunc i64 %24 to i32
  call void @freeCKAttributeArray(ptr noundef %23, i32 noundef %25) #5
  %26 = call i64 @ckAssertReturnValueOK(ptr noundef nonnull %0, i64 noundef %21) #5
  %.not16 = icmp eq i64 %26, 0
  %. = select i1 %.not16, i64 %22, i64 0
  br label %27

27:                                               ; preds = %16, %11, %5
  %.0 = phi i64 [ 0, %5 ], [ 0, %11 ], [ %., %16 ]
  ret i64 %.0
}